; Function Attrs: mustprogress nounwind uwtable
define internal void @"_ZN2rc10ShrinkableIcE14ShrinkableImplINS_10shrinkable6detail13MapShrinkableISt5tupleIJhEEZNS_3gen5applyIZNS_13storePathCharEvE3$_0JhEEENS_3GenINSt13invoke_resultIT_JDpT0_EE4typeEEEOSD_DpNSB_ISE_EEEUlOS7_E_EEE7releaseEv"(ptr noundef nonnull align 8 dereferenceable(32) %0) unnamed_addr #5 align 2 {
  %2 = getelementptr inbounds i8, ptr %0, i64 24
  %3 = atomicrmw sub ptr %2, i64 1 seq_cst, align 8
  %.not = icmp eq i64 %3, 1
  br i1 %.not, label %4, label %8

4:                                                ; preds = %1
  %5 = load ptr, ptr %0, align 8
  %6 = getelementptr inbounds i8, ptr %5, i64 40
  %7 = load ptr, ptr %6, align 8
  tail call void %7(ptr noundef nonnull align 8 dereferenceable(32) %0) #21
  br label %8

8:                                                ; preds = %4, %1
  ret void
}